target datalayout = "e-m:e-p270:32:32-p271:32:32-p272:64:64-i64:64-i128:128-f80:128-n8:16:32:64-S128"
target triple = "x86_64-pc-linux-gnu"

%struct._object = type { %union.anon, ptr }
%union.anon = type { i64 }
%struct.pysqlite_state = type { ptr, ptr, ptr, ptr, ptr, ptr, ptr, ptr, ptr, ptr, ptr, ptr, ptr, i32, i32, ptr, ptr, ptr, ptr, ptr, ptr, ptr, ptr, ptr, ptr, ptr, ptr, ptr, ptr }
%struct._callback_context = type { ptr, ptr, ptr }
%struct.anon = type { i32, i32 }

@PyExc_AttributeError = external global ptr, align 8
@.str.61 = private unnamed_addr constant [55 x i8] c"user-defined aggregate's 'finalize' method not defined\00", align 1
@.str.62 = private unnamed_addr constant [56 x i8] c"user-defined aggregate's 'finalize' method raised error\00", align 1

; Function Attrs: alwaysinline nounwind uwtable
define internal i32 @_Py_IsImmortal(ptr noundef %0) #5 {
  %2 = alloca ptr, align 8
  store ptr %0, ptr %2, align 8, !tbaa !22
  %3 = load ptr, ptr %2, align 8, !tbaa !22
  %4 = getelementptr inbounds nuw %struct._object, ptr %3, i32 0, i32 0
  %5 = getelementptr inbounds nuw %struct.anon, ptr %4, i32 0, i32 0
  %6 = load i32, ptr %5, align 8, !tbaa !65
  %7 = icmp slt i32 %6, 0
  %8 = zext i1 %7 to i32
  ret i32 %8
}

; Function Attrs: alwaysinline nounwind uwtable
define internal void @Py_DECREF(ptr noundef %0) #5 {
  %2 = alloca ptr, align 8
  store ptr %0, ptr %2, align 8, !tbaa !22
  %3 = load ptr, ptr %2, align 8, !tbaa !22
  %4 = call i32 @_Py_IsImmortal(ptr noundef %3)
  %5 = icmp ne i32 %4, 0
  br i1 %5, label %6, label %7

6:                                                ; preds = %1
  br label %16

7:                                                ; preds = %1
  %8 = load ptr, ptr %2, align 8, !tbaa !22
  %9 = getelementptr inbounds nuw %struct._object, ptr %8, i32 0, i32 0
  %10 = getelementptr inbounds nuw %struct.anon, ptr %9, i32 0, i32 0
  %11 = load i32, ptr %10, align 8, !tbaa !65
  %12 = add i32 %11, -1
  store i32 %12, ptr %10, align 8, !tbaa !65
  %13 = icmp eq i32 %12, 0
  br i1 %13, label %14, label %16

14:                                               ; preds = %7
  %15 = load ptr, ptr %2, align 8, !tbaa !22
  call void @_Py_Dealloc(ptr noundef %15)
  br label %16

16:                                               ; preds = %6, %14, %7
  ret void
}

; Function Attrs: inlinehint nounwind uwtable
define internal ptr @PyObject_CallMethodNoArgs(ptr noundef %0, ptr noundef %1) #2 {
  %3 = alloca ptr, align 8
  %4 = alloca ptr, align 8
  %5 = alloca i64, align 8
  store ptr %0, ptr %3, align 8, !tbaa !22
  store ptr %1, ptr %4, align 8, !tbaa !22
  call void @llvm.lifetime.start.p0(i64 8, ptr %5) #8
  store i64 -9223372036854775807, ptr %5, align 8, !tbaa !39
  %6 = load ptr, ptr %4, align 8, !tbaa !22
  %7 = load i64, ptr %5, align 8, !tbaa !39
  %8 = call ptr @PyObject_VectorcallMethod(ptr noundef %6, ptr noundef %3, i64 noundef %7, ptr noundef null)
  call void @llvm.lifetime.end.p0(i64 8, ptr %5) #8
  ret ptr %8
}

; Function Attrs: nounwind uwtable
define internal void @final_callback(ptr noundef %0) #0 {
  %2 = alloca ptr, align 8
  %3 = alloca i32, align 4
  %4 = alloca ptr, align 8
  %5 = alloca ptr, align 8
  %6 = alloca i32, align 4
  %7 = alloca ptr, align 8
  %8 = alloca ptr, align 8
  %9 = alloca i32, align 4
  store ptr %0, ptr %2, align 8, !tbaa !83
  call void @llvm.lifetime.start.p0(i64 4, ptr %3) #8
  %10 = call i32 @PyGILState_Ensure()
  store i32 %10, ptr %3, align 4, !tbaa !30
  call void @llvm.lifetime.start.p0(i64 8, ptr %4) #8
  call void @llvm.lifetime.start.p0(i64 8, ptr %5) #8
  call void @llvm.lifetime.start.p0(i64 4, ptr %6) #8
  %11 = load ptr, ptr %2, align 8, !tbaa !83
  %12 = call ptr @sqlite3_aggregate_context(ptr noundef %11, i32 noundef 0)
  store ptr %12, ptr %5, align 8, !tbaa !43
  %13 = load ptr, ptr %5, align 8, !tbaa !43
  %14 = icmp eq ptr %13, null
  br i1 %14, label %15, label %16

15:                                               ; preds = %1
  br label %59

16:                                               ; preds = %1
  %17 = load ptr, ptr %5, align 8, !tbaa !43
  %18 = load ptr, ptr %17, align 8, !tbaa !22
  %19 = icmp ne ptr %18, null
  br i1 %19, label %21, label %20

20:                                               ; preds = %16
  br label %59

21:                                               ; preds = %16
  br label %22

22:                                               ; preds = %21
  %23 = call ptr @PyErr_GetRaisedException()
  store ptr %23, ptr %7, align 8, !tbaa !22
  %24 = load ptr, ptr %2, align 8, !tbaa !83
  %25 = call ptr @sqlite3_user_data(ptr noundef %24)
  store ptr %25, ptr %8, align 8, !tbaa !64
  %26 = load ptr, ptr %5, align 8, !tbaa !43
  %27 = load ptr, ptr %26, align 8, !tbaa !22
  %28 = load ptr, ptr %8, align 8, !tbaa !64
  %29 = getelementptr inbounds nuw %struct._callback_context, ptr %28, i32 0, i32 2
  %30 = load ptr, ptr %29, align 8, !tbaa !82
  %31 = getelementptr inbounds nuw %struct.pysqlite_state, ptr %30, i32 0, i32 24
  %32 = load ptr, ptr %31, align 8, !tbaa !88
  %33 = call ptr @PyObject_CallMethodNoArgs(ptr noundef %27, ptr noundef %32)
  store ptr %33, ptr %4, align 8, !tbaa !22
  %34 = load ptr, ptr %5, align 8, !tbaa !43
  %35 = load ptr, ptr %34, align 8, !tbaa !22
  call void @Py_DECREF(ptr noundef %35)
  store i32 0, ptr %6, align 4, !tbaa !30
  %36 = load ptr, ptr %4, align 8, !tbaa !22
  %37 = icmp ne ptr %36, null
  br i1 %37, label %38, label %45

38:                                               ; preds = %22
  %39 = load ptr, ptr %2, align 8, !tbaa !83
  %40 = load ptr, ptr %4, align 8, !tbaa !22
  %41 = call i32 @_pysqlite_set_result(ptr noundef %39, ptr noundef %40)
  %42 = icmp eq i32 %41, 0
  %43 = zext i1 %42 to i32
  store i32 %43, ptr %6, align 4, !tbaa !30
  %44 = load ptr, ptr %4, align 8, !tbaa !22
  call void @Py_DECREF(ptr noundef %44)
  br label %45

45:                                               ; preds = %38, %22
  %46 = load i32, ptr %6, align 4, !tbaa !30
  %47 = icmp ne i32 %46, 0
  br i1 %47, label %56, label %48

48:                                               ; preds = %45
  call void @llvm.lifetime.start.p0(i64 4, ptr %9) #8
  %49 = load ptr, ptr @PyExc_AttributeError, align 8, !tbaa !22
  %50 = call i32 @PyErr_ExceptionMatches(ptr noundef %49)
  store i32 %50, ptr %9, align 4, !tbaa !30
  %51 = load ptr, ptr %7, align 8, !tbaa !22
  call void @_PyErr_ChainExceptions1(ptr noundef %51)
  %52 = load ptr, ptr %2, align 8, !tbaa !83
  %53 = load i32, ptr %9, align 4, !tbaa !30
  %54 = icmp ne i32 %53, 0
  %55 = select i1 %54, ptr @.str.61, ptr @.str.62
  call void @set_sqlite_error(ptr noundef %52, ptr noundef %55)
  call void @llvm.lifetime.end.p0(i64 4, ptr %9) #8
  br label %58

56:                                               ; preds = %45
  %57 = load ptr, ptr %7, align 8, !tbaa !22
  call void @PyErr_SetRaisedException(ptr noundef %57)
  br label %58

58:                                               ; preds = %56, %48
  br label %59

59:                                               ; preds = %58, %20, %15
  %60 = load i32, ptr %3, align 4, !tbaa !30
  call void @PyGILState_Release(i32 noundef %60)
  call void @llvm.lifetime.end.p0(i64 4, ptr %6) #8
  call void @llvm.lifetime.end.p0(i64 8, ptr %5) #8
  call void @llvm.lifetime.end.p0(i64 8, ptr %4) #8
  call void @llvm.lifetime.end.p0(i64 4, ptr %3) #8
  ret void
}