; Function Attrs: nounwind uwtable
define internal void @final_callback(ptr noundef %0) #0 {
  %2 = alloca ptr, align 8
  %3 = tail call i32 @PyGILState_Ensure() #7
  %4 = tail call ptr @sqlite3_aggregate_context(ptr noundef %0, i32 noundef 0) #7
  %5 = icmp eq ptr %4, null
  br i1 %5, label %34, label %6

6:                                                ; preds = %1
  %7 = load ptr, ptr %4, align 8, !tbaa !25
  %.not = icmp eq ptr %7, null
  br i1 %.not, label %34, label %8

8:                                                ; preds = %6
  %9 = tail call ptr @PyErr_GetRaisedException() #7
  %10 = tail call ptr @sqlite3_user_data(ptr noundef %0) #7
  %11 = load ptr, ptr %4, align 8, !tbaa !25
  %12 = getelementptr inbounds nuw i8, ptr %10, i64 16
  %13 = load ptr, ptr %12, align 8, !tbaa !87
  %14 = getelementptr inbounds nuw i8, ptr %13, i64 184
  %15 = load ptr, ptr %14, align 8, !tbaa !98
  call void @llvm.lifetime.start.p0(i64 8, ptr nonnull %2)
  store ptr %11, ptr %2, align 8, !tbaa !25
  %16 = call ptr @PyObject_VectorcallMethod(ptr noundef %15, ptr noundef nonnull %2, i64 noundef -9223372036854775807, ptr noundef null) #7
  call void @llvm.lifetime.end.p0(i64 8, ptr nonnull %2)
  %17 = load ptr, ptr %4, align 8, !tbaa !25
  %18 = load i32, ptr %17, align 8, !tbaa !34
  %.not.i21 = icmp sgt i32 %18, -1
  br i1 %.not.i21, label %19, label %Py_DECREF.exit22

19:                                               ; preds = %8
  %20 = add nsw i32 %18, -1
  store i32 %20, ptr %17, align 8, !tbaa !34
  %21 = icmp eq i32 %20, 0
  br i1 %21, label %22, label %Py_DECREF.exit22

22:                                               ; preds = %19
  call void @_Py_Dealloc(ptr noundef nonnull %17) #7
  br label %Py_DECREF.exit22

Py_DECREF.exit22:                                 ; preds = %8, %19, %22
  %.not18 = icmp eq ptr %16, null
  br i1 %.not18, label %.critedge, label %23

23:                                               ; preds = %Py_DECREF.exit22
  %24 = call fastcc i32 @_pysqlite_set_result(ptr noundef %0, ptr noundef %16)
  %.not24 = icmp eq i32 %24, 0
  %25 = load i32, ptr %16, align 8, !tbaa !34
  %.not.i = icmp sgt i32 %25, -1
  br i1 %.not.i, label %26, label %Py_DECREF.exit

26:                                               ; preds = %23
  %27 = add nsw i32 %25, -1
  store i32 %27, ptr %16, align 8, !tbaa !34
  %28 = icmp eq i32 %27, 0
  br i1 %28, label %29, label %Py_DECREF.exit

29:                                               ; preds = %26
  call void @_Py_Dealloc(ptr noundef nonnull %16) #7
  br label %Py_DECREF.exit

Py_DECREF.exit:                                   ; preds = %23, %26, %29
  br i1 %.not24, label %33, label %.critedge

.critedge:                                        ; preds = %Py_DECREF.exit22, %Py_DECREF.exit
  %30 = load ptr, ptr @PyExc_AttributeError, align 8, !tbaa !25
  %31 = call i32 @PyErr_ExceptionMatches(ptr noundef %30) #7
  call void @_PyErr_ChainExceptions1(ptr noundef %9) #7
  %.not20 = icmp eq i32 %31, 0
  %32 = select i1 %.not20, ptr @.str.62, ptr @.str.61
  call fastcc void @set_sqlite_error(ptr noundef %0, ptr noundef nonnull %32)
  br label %34

33:                                               ; preds = %Py_DECREF.exit
  call void @PyErr_SetRaisedException(ptr noundef %9) #7
  br label %34

34:                                               ; preds = %.critedge, %33, %6, %1
  call void @PyGILState_Release(i32 noundef %3) #7
  ret void
}